target datalayout = "e-m:e-p270:32:32-p271:32:32-p272:64:64-i64:64-i128:128-f80:128-n8:16:32:64-S128"
target triple = "x86_64-unknown-linux-gnu"

@.str = private unnamed_addr constant [27 x i8] c"../qemu/net/colo-compare.c\00", align 1
@__func__.find_and_check_chardev = private unnamed_addr constant [23 x i8] c"find_and_check_chardev\00", align 1
@.str.20 = private unnamed_addr constant [22 x i8] c"Device '%s' not found\00", align 1
@.str.21 = private unnamed_addr constant [34 x i8] c"chardev \22%s\22 is not reconnectable\00", align 1
@.str.22 = private unnamed_addr constant [35 x i8] c"chardev \22%s\22 cannot switch context\00", align 1

; Function Attrs: nounwind sspstrong uwtable
define internal i32 @find_and_check_chardev(ptr noundef %chr, ptr noundef %chr_name, ptr noundef %errp) #0 {
entry:
  %retval = alloca i32, align 4
  %chr.addr = alloca ptr, align 8
  %chr_name.addr = alloca ptr, align 8
  %errp.addr = alloca ptr, align 8
  store ptr %chr, ptr %chr.addr, align 8
  store ptr %chr_name, ptr %chr_name.addr, align 8
  store ptr %errp, ptr %errp.addr, align 8
  %0 = load ptr, ptr %chr_name.addr, align 8
  %call = call ptr @qemu_chr_find(ptr noundef %0)
  %1 = load ptr, ptr %chr.addr, align 8
  store ptr %call, ptr %1, align 8
  %2 = load ptr, ptr %chr.addr, align 8
  %3 = load ptr, ptr %2, align 8
  %cmp = icmp eq ptr %3, null
  br i1 %cmp, label %if.then, label %if.end

if.then:                                          ; preds = %entry
  %4 = load ptr, ptr %errp.addr, align 8
  %5 = load ptr, ptr %chr_name.addr, align 8
  call void (ptr, ptr, i32, ptr, ptr, ...) @error_setg_internal(ptr noundef %4, ptr noundef @.str, i32 noundef 1218, ptr noundef @__func__.find_and_check_chardev, ptr noundef @.str.20, ptr noundef %5)
  store i32 1, ptr %retval, align 4
  br label %return

if.end:                                           ; preds = %entry
  %6 = load ptr, ptr %chr.addr, align 8
  %7 = load ptr, ptr %6, align 8
  %call1 = call zeroext i1 @qemu_chr_has_feature(ptr noundef %7, i32 noundef 0)
  br i1 %call1, label %if.end3, label %if.then2

if.then2:                                         ; preds = %if.end
  %8 = load ptr, ptr %errp.addr, align 8
  %9 = load ptr, ptr %chr_name.addr, align 8
  call void (ptr, ptr, i32, ptr, ptr, ...) @error_setg_internal(ptr noundef %8, ptr noundef @.str, i32 noundef 1224, ptr noundef @__func__.find_and_check_chardev, ptr noundef @.str.21, ptr noundef %9)
  store i32 1, ptr %retval, align 4
  br label %return

if.end3:                                          ; preds = %if.end
  %10 = load ptr, ptr %chr.addr, align 8
  %11 = load ptr, ptr %10, align 8
  %call4 = call zeroext i1 @qemu_chr_has_feature(ptr noundef %11, i32 noundef 3)
  br i1 %call4, label %if.end6, label %if.then5

if.then5:                                         ; preds = %if.end3
  %12 = load ptr, ptr %errp.addr, align 8
  %13 = load ptr, ptr %chr_name.addr, align 8
  call void (ptr, ptr, i32, ptr, ptr, ...) @error_setg_internal(ptr noundef %12, ptr noundef @.str, i32 noundef 1230, ptr noundef @__func__.find_and_check_chardev, ptr noundef @.str.22, ptr noundef %13)
  store i32 1, ptr %retval, align 4
  br label %return

if.end6:                                          ; preds = %if.end3
  store i32 0, ptr %retval, align 4
  br label %return

return:                                           ; preds = %if.end6, %if.then5, %if.then2, %if.then
  %14 = load i32, ptr %retval, align 4
  ret i32 %14
}