; Function Attrs: nounwind sspstrong uwtable
define internal fastcc range(i32 0, 2) i32 @find_and_check_chardev(ptr noundef nonnull captures(none) initializes((0, 8)) %chr, ptr noundef %chr_name, ptr noundef %errp) unnamed_addr #0 {
entry:
  %call = tail call ptr @qemu_chr_find(ptr noundef %chr_name) #16
  store ptr %call, ptr %chr, align 8
  %cmp = icmp eq ptr %call, null
  br i1 %cmp, label %if.then, label %if.end

if.then:                                          ; preds = %entry
  tail call void (ptr, ptr, i32, ptr, ptr, ...) @error_setg_internal(ptr noundef %errp, ptr noundef nonnull @.str, i32 noundef 1218, ptr noundef nonnull @__func__.find_and_check_chardev, ptr noundef nonnull @.str.20, ptr noundef %chr_name) #16
  br label %return

if.end:                                           ; preds = %entry
  %call1 = tail call zeroext i1 @qemu_chr_has_feature(ptr noundef nonnull %call, i32 noundef 0) #16
  br i1 %call1, label %if.end3, label %if.then2

if.then2:                                         ; preds = %if.end
  tail call void (ptr, ptr, i32, ptr, ptr, ...) @error_setg_internal(ptr noundef %errp, ptr noundef nonnull @.str, i32 noundef 1224, ptr noundef nonnull @__func__.find_and_check_chardev, ptr noundef nonnull @.str.21, ptr noundef %chr_name) #16
  br label %return

if.end3:                                          ; preds = %if.end
  %0 = load ptr, ptr %chr, align 8
  %call4 = tail call zeroext i1 @qemu_chr_has_feature(ptr noundef %0, i32 noundef 3) #16
  br i1 %call4, label %return, label %if.then5

if.then5:                                         ; preds = %if.end3
  tail call void (ptr, ptr, i32, ptr, ptr, ...) @error_setg_internal(ptr noundef %errp, ptr noundef nonnull @.str, i32 noundef 1230, ptr noundef nonnull @__func__.find_and_check_chardev, ptr noundef nonnull @.str.22, ptr noundef %chr_name) #16
  br label %return

return:                                           ; preds = %if.end3, %if.then5, %if.then2, %if.then
  %retval.0 = phi i32 [ 1, %if.then ], [ 1, %if.then5 ], [ 1, %if.then2 ], [ 0, %if.end3 ]
  ret i32 %retval.0
}